	.file	"traced_ifthenelse.cpp"
	.text
.Ltext0:
	.globl	var2
	.bss
	.align 32
	.type	var2, @object
	.size	var2, 16000000
var2:
	.zero	16000000
	.globl	var3
	.align 32
	.type	var3, @object
	.size	var3, 16000000
var3:
	.zero	16000000
	.globl	var10
	.align 32
	.type	var10, @object
	.size	var10, 16000000
var10:
	.zero	16000000
	.globl	var11
	.align 32
	.type	var11, @object
	.size	var11, 16000000
var11:
	.zero	16000000
	.globl	tr
	.align 16
	.type	tr, @object
	.size	tr, 24
tr:
	.zero	24
	.globl	key
	.align 2
	.type	key, @object
	.size	key, 2
key:
	.zero	2
	.globl	HR
	.align 4
	.type	HR, @object
	.size	HR, 4
HR:
	.zero	4
	.globl	mask_HR
	.data
	.align 4
	.type	mask_HR, @object
	.size	mask_HR, 4
mask_HR:
	.long	15
	.globl	PHT
	.bss
	.align 32
	.type	PHT, @object
	.size	PHT, 32
PHT:
	.zero	32
	.globl	coeff
	.type	coeff, @object
	.size	coeff, 2
coeff:
	.zero	2
	.text
	.globl	_Z9predictorPv
	.type	_Z9predictorPv, @function
_Z9predictorPv:
.LFB3941:
	.file 1 "traced_ifthenelse.cpp"
	.loc 1 33 0
	.cfi_startproc
	pushq	%rbp
	.cfi_def_cfa_offset 16
	.cfi_offset 6, -16
	movq	%rsp, %rbp
	.cfi_def_cfa_register 6
	movq	%rdi, -24(%rbp)
.LBB26:
	.loc 1 35 0
	movl	$0, -8(%rbp)
.L3:
	.loc 1 35 0 is_stmt 0 discriminator 3
	cmpl	$15, -8(%rbp)
	jg	.L2
	.loc 1 37 0 is_stmt 1 discriminator 2
	movl	-8(%rbp), %eax
	cltq
	leaq	(%rax,%rax), %rdx
	leaq	PHT(%rip), %rax
	movw	$0, (%rdx,%rax)
	.loc 1 35 0 discriminator 2
	addl	$1, -8(%rbp)
	jmp	.L3
.L2:
.LBE26:
.LBB27:
	.loc 1 39 0
	movl	$0, -4(%rbp)
.L5:
	.loc 1 39 0 is_stmt 0 discriminator 3
	cmpl	$1, -4(%rbp)
	jg	.L4
	.loc 1 41 0 is_stmt 1 discriminator 2
	movl	-4(%rbp), %eax
	movslq	%eax, %rdx
	leaq	coeff(%rip), %rax
	movb	$1, (%rdx,%rax)
	.loc 1 39 0 discriminator 2
	addl	$1, -4(%rbp)
	jmp	.L5
.L4:
.LBE27:
	.loc 1 46 0
	movl	HR(%rip), %edx
	movl	mask_HR(%rip), %eax
	andl	%edx, %eax
	movl	%eax, %eax
	leaq	(%rax,%rax), %rdx
	leaq	PHT(%rip), %rax
	movzwl	(%rdx,%rax), %eax
	movw	%ax, key(%rip)
	.loc 1 50 0
	movl	HR(%rip), %eax
	sall	$2, %eax
	movl	%eax, HR(%rip)
	.loc 1 51 0
	movzwl	key(%rip), %eax
	movswl	%ax, %edx
	movl	HR(%rip), %eax
	addl	%edx, %eax
	movl	%eax, HR(%rip)
.L7:
	.loc 1 53 0
	movzwl	key(%rip), %eax
	notl	%eax
	shrw	$15, %ax
	testb	%al, %al
	je	.L4
	jmp	.L7
	.cfi_endproc
.LFE3941:
	.size	_Z9predictorPv, .-_Z9predictorPv
	.section	.rodata
.LC0:
	.string	"EXEC cycles: %lu \n"
.LC2:
	.string	"EXEC time: %.8f \n"
	.align 8
.LC3:
	.string	"\n\n\n****\nCurrent state: %lld %lld %lld %lld\n****\ntr0: %lld; tr1: %lld; tr2: %lld\nMispredicted trace 1: %lld \nMispredicted trace 2: %lld \n"
	.align 8
.LC4:
	.string	"\n#################################################\nVerification: "
.LC5:
	.string	"%lld %lld %lld %lld \n"
.LC6:
	.string	"\n\n\n"
	.text
	.globl	main
	.type	main, @function
main:
.LFB3942:
	.loc 1 58 0
	.cfi_startproc
	pushq	%rbp
	.cfi_def_cfa_offset 16
	.cfi_offset 6, -16
	movq	%rsp, %rbp
	.cfi_def_cfa_register 6
	subq	$176, %rsp
	movl	%edi, -148(%rbp)
	movq	%rsi, -160(%rbp)
	.loc 1 58 0
	movq	%fs:40, %rax
	movq	%rax, -8(%rbp)
	xorl	%eax, %eax
	.loc 1 59 0
	movq	$0, -88(%rbp)
	movq	$0, -80(%rbp)
	movq	$0, -72(%rbp)
	movq	$0, -64(%rbp)
	.loc 1 60 0
	movb	$114, -133(%rbp)
	.loc 1 61 0
	movl	$700014, -128(%rbp)
	.loc 1 64 0
	cmpl	$7, -148(%rbp)
	jne	.L9
	.loc 1 66 0
	movq	-160(%rbp), %rax
	addq	$8, %rax
	movq	(%rax), %rax
	movq	%rax, %rdi
	call	atoi@PLT
	cltq
	movq	%rax, -88(%rbp)
	.loc 1 67 0
	movq	-160(%rbp), %rax
	addq	$16, %rax
	movq	(%rax), %rax
	movq	%rax, %rdi
	call	atoi@PLT
	cltq
	movq	%rax, -80(%rbp)
	.loc 1 68 0
	movq	-160(%rbp), %rax
	addq	$24, %rax
	movq	(%rax), %rax
	movq	%rax, %rdi
	call	atoi@PLT
	cltq
	movq	%rax, -72(%rbp)
	.loc 1 69 0
	movq	-160(%rbp), %rax
	addq	$32, %rax
	movq	(%rax), %rax
	movq	%rax, %rdi
	call	atoi@PLT
	cltq
	movq	%rax, -64(%rbp)
	.loc 1 70 0
	movq	-160(%rbp), %rax
	addq	$40, %rax
	movq	(%rax), %rax
	movzbl	(%rax), %eax
	movb	%al, -133(%rbp)
	.loc 1 71 0
	movq	-160(%rbp), %rax
	addq	$48, %rax
	movq	(%rax), %rax
	movq	%rax, %rdi
	call	atoi@PLT
	movl	%eax, -128(%rbp)
.L9:
.LBB28:
	.loc 1 77 0
	movl	$0, -124(%rbp)
.L11:
	.loc 1 77 0 is_stmt 0 discriminator 3
	cmpl	$1999999, -124(%rbp)
	jg	.L10
	.loc 1 79 0 is_stmt 1 discriminator 2
	call	rand@PLT
	movl	%eax, %ecx
	movl	$274877907, %edx
	movl	%ecx, %eax
	imull	%edx
	sarl	$5, %edx
	movl	%ecx, %eax
	sarl	$31, %eax
	subl	%eax, %edx
	movl	%edx, %eax
	imull	$500, %eax, %eax
	subl	%eax, %ecx
	movl	%ecx, %eax
	movslq	%eax, %rdx
	movl	-124(%rbp), %eax
	cltq
	leaq	0(,%rax,8), %rcx
	leaq	var2(%rip), %rax
	movq	%rdx, (%rcx,%rax)
	.loc 1 80 0 discriminator 2
	call	rand@PLT
	movl	%eax, %ecx
	movl	$274877907, %edx
	movl	%ecx, %eax
	imull	%edx
	sarl	$5, %edx
	movl	%ecx, %eax
	sarl	$31, %eax
	subl	%eax, %edx
	movl	%edx, %eax
	imull	$500, %eax, %eax
	subl	%eax, %ecx
	movl	%ecx, %eax
	movslq	%eax, %rdx
	movl	-124(%rbp), %eax
	cltq
	leaq	0(,%rax,8), %rcx
	leaq	var3(%rip), %rax
	movq	%rdx, (%rcx,%rax)
	.loc 1 81 0 discriminator 2
	call	rand@PLT
	movl	%eax, %ecx
	movl	$274877907, %edx
	movl	%ecx, %eax
	imull	%edx
	sarl	$5, %edx
	movl	%ecx, %eax
	sarl	$31, %eax
	subl	%eax, %edx
	movl	%edx, %eax
	imull	$500, %eax, %eax
	subl	%eax, %ecx
	movl	%ecx, %eax
	movslq	%eax, %rdx
	movl	-124(%rbp), %eax
	cltq
	leaq	0(,%rax,8), %rcx
	leaq	var10(%rip), %rax
	movq	%rdx, (%rcx,%rax)
	.loc 1 82 0 discriminator 2
	call	rand@PLT
	movl	%eax, %ecx
	movl	$274877907, %edx
	movl	%ecx, %eax
	imull	%edx
	sarl	$5, %edx
	movl	%ecx, %eax
	sarl	$31, %eax
	subl	%eax, %edx
	movl	%edx, %eax
	imull	$500, %eax, %eax
	subl	%eax, %ecx
	movl	%ecx, %eax
	movslq	%eax, %rdx
	movl	-124(%rbp), %eax
	cltq
	leaq	0(,%rax,8), %rcx
	leaq	var11(%rip), %rax
	movq	%rdx, (%rcx,%rax)
	.loc 1 77 0 discriminator 2
	addl	$1, -124(%rbp)
	jmp	.L11
.L10:
.LBE28:
	.loc 1 84 0
	movq	$0, -56(%rbp)
	movq	$0, -48(%rbp)
	movq	$0, -40(%rbp)
	.loc 1 88 0
	leaq	-104(%rbp), %rax
	movl	$0, %ecx
	leaq	_Z9predictorPv(%rip), %rdx
	movl	$0, %esi
	movq	%rax, %rdi
	call	pthread_create@PLT
	.loc 1 89 0
	movl	$0, -108(%rbp)
.LBB29:
.LBB30:
	.file 2 "/usr/lib/gcc/x86_64-linux-gnu/7/include/ia32intrin.h"
	.loc 2 114 0
	rdtsc
	salq	$32, %rdx
	orq	%rdx, %rax
.LBE30:
.LBE29:
	.loc 1 93 0
	movq	%rax, -32(%rbp)
.LBB31:
	.loc 1 94 0
	movl	$0, -120(%rbp)
.L39:
	.loc 1 94 0 is_stmt 0 discriminator 1
	cmpl	$499, -120(%rbp)
	jg	.L13
.LBB32:
.LBB33:
	.loc 1 96 0 is_stmt 1
	movl	$0, -116(%rbp)
.L38:
	.loc 1 96 0 is_stmt 0 discriminator 1
	movl	-116(%rbp), %eax
	cmpl	-128(%rbp), %eax
	jge	.L14
.L16:
.LBB34:
	.loc 1 99 0 is_stmt 1
	movzwl	key(%rip), %eax
	shrw	$15, %ax
	testb	%al, %al
	je	.L15
	jmp	.L16
.L15:
	.loc 1 107 0
	movzwl	key(%rip), %rax
        jmp     *trace_tbl(,%rax,8)
        .section        .rodata
trace_tbl:
        .quad           .TRACE1
        .quad           .TRACE2
        .section        .text

.TRACE1:
.L17:
.LBB35:
.LBB36:
	.file 3 "/usr/lib/gcc/x86_64-linux-gnu/7/include/rtmintrin.h"
	.loc 3 52 0
	movl	$-1, %eax
	xbegin	.L18
.L18:
.LBE36:
.LBE35:
	.loc 1 111 0
	movl	%eax, -108(%rbp)
.LBB37:
	.loc 1 112 0
	cmpl	$-1, -108(%rbp)
	jne	.L20
	.loc 1 114 0
	movl	-116(%rbp), %ecx
	movl	$-1840700269, %edx
	movl	%ecx, %eax
	imull	%edx
	leal	(%rdx,%rcx), %eax
	sarl	$2, %eax
	movl	%eax, %edx
	movl	%ecx, %eax
	sarl	$31, %eax
	subl	%eax, %edx
	movl	%edx, %eax
	movl	%eax, %edx
	sall	$3, %edx
	subl	%eax, %edx
	movl	%ecx, %eax
	subl	%edx, %eax
	testl	%eax, %eax
	jne	.L21
	.loc 1 114 0 is_stmt 0 discriminator 1
	xabort	$1
.L21:
	.loc 1 115 0 is_stmt 1
	movl	-116(%rbp), %edx
	movl	-120(%rbp), %eax
	leal	(%rdx,%rax), %esi
	movl	-116(%rbp), %ecx
	movl	$-1840700269, %edx
	movl	%ecx, %eax
	imull	%edx
	leal	(%rdx,%rcx), %eax
	sarl	$2, %eax
	movl	%eax, %edx
	movl	%ecx, %eax
	sarl	$31, %eax
	subl	%eax, %edx
	movl	%edx, %eax
	movl	%eax, %edx
	sall	$3, %edx
	subl	%eax, %edx
	movl	%ecx, %eax
	subl	%edx, %eax
	movslq	%esi, %rdx
	leaq	0(,%rdx,8), %rcx
	leaq	var3(%rip), %rdx
	movq	(%rcx,%rdx), %rdx
	cltq
	leaq	0(,%rax,8), %rcx
	leaq	var2(%rip), %rax
	movq	%rdx, (%rcx,%rax)
	.loc 1 116 0
	movl	-116(%rbp), %ecx
	movl	$-1840700269, %edx
	movl	%ecx, %eax
	imull	%edx
	leal	(%rdx,%rcx), %eax
	sarl	$2, %eax
	movl	%eax, %edx
	movl	%ecx, %eax
	sarl	$31, %eax
	subl	%eax, %edx
	movl	%edx, %eax
	cltq
	leaq	0(,%rax,8), %rdx
	leaq	var3(%rip), %rax
	movq	$2, (%rdx,%rax)
	.loc 1 117 0
	movl	-116(%rbp), %ecx
	movl	$-1840700269, %edx
	movl	%ecx, %eax
	imull	%edx
	leal	(%rdx,%rcx), %eax
	sarl	$2, %eax
	movl	%eax, %edx
	movl	%ecx, %eax
	sarl	$31, %eax
	movl	%edx, %esi
	subl	%eax, %esi
	movslq	%esi, %rax
	leaq	0(,%rax,8), %rdx
	leaq	var10(%rip), %rax
	movq	(%rdx,%rax), %rdi
	movl	-116(%rbp), %ecx
	movl	$-1840700269, %edx
	movl	%ecx, %eax
	imull	%edx
	leal	(%rdx,%rcx), %eax
	sarl	$2, %eax
	movl	%eax, %edx
	movl	%ecx, %eax
	sarl	$31, %eax
	subl	%eax, %edx
	movl	%edx, %eax
	movl	%eax, %edx
	sall	$3, %edx
	subl	%eax, %edx
	movl	%ecx, %eax
	subl	%edx, %eax
	cltq
	leaq	0(,%rax,8), %rdx
	leaq	var3(%rip), %rax
	movq	(%rdx,%rax), %rax
	leaq	(%rdi,%rax), %rcx
	movslq	%esi, %rax
	leaq	0(,%rax,8), %rdx
	leaq	var10(%rip), %rax
	movq	%rcx, (%rdx,%rax)
	.loc 1 118 0
	movl	-116(%rbp), %edx
	movl	-120(%rbp), %eax
	addl	%edx, %eax
	movslq	%eax, %rdx
	leaq	0(,%rdx,8), %rcx
	leaq	var11(%rip), %rdx
	movq	(%rcx,%rdx), %rdx
	leaq	1(%rdx), %rcx
	cltq
	leaq	0(,%rax,8), %rdx
	leaq	var11(%rip), %rax
	movq	%rcx, (%rdx,%rax)
.LBB38:
.LBB39:
	.loc 3 63 0
	xend
.LBE39:
.LBE38:
	jmp	.L22
.L20:
.LBB40:
	.loc 1 123 0
	addq	$1, -56(%rbp)
	.loc 1 124 0
	movw	$0, -132(%rbp)
	.loc 1 126 0
	movl	-116(%rbp), %ecx
	movl	$-1840700269, %edx
	movl	%ecx, %eax
	imull	%edx
	leal	(%rdx,%rcx), %eax
	sarl	$2, %eax
	movl	%eax, %edx
	movl	%ecx, %eax
	sarl	$31, %eax
	subl	%eax, %edx
	movl	%edx, %eax
	movl	%eax, %edx
	sall	$3, %edx
	subl	%eax, %edx
	movl	%ecx, %eax
	subl	%edx, %eax
	testl	%eax, %eax
	jne	.L23
	.loc 1 128 0
	movw	$1, -132(%rbp)
	.loc 1 129 0
	movl	-116(%rbp), %eax
	cltq
	leaq	0(,%rax,8), %rdx
	leaq	var3(%rip), %rax
	movq	(%rdx,%rax), %rdx
	movl	-116(%rbp), %ecx
	movl	-120(%rbp), %eax
	addl	%ecx, %eax
	cltq
	leaq	0(,%rax,8), %rcx
	leaq	var2(%rip), %rax
	movq	(%rcx,%rax), %rax
	leaq	(%rdx,%rax), %rcx
	movl	-116(%rbp), %eax
	cltq
	leaq	0(,%rax,8), %rdx
	leaq	var3(%rip), %rax
	movq	%rcx, (%rdx,%rax)
	.loc 1 130 0
	movl	-116(%rbp), %ecx
	movl	$-1840700269, %edx
	movl	%ecx, %eax
	imull	%edx
	leal	(%rdx,%rcx), %eax
	sarl	$2, %eax
	movl	%eax, %edx
	movl	%ecx, %eax
	sarl	$31, %eax
	subl	%eax, %edx
	movl	%edx, %eax
	movslq	%eax, %rdx
	leaq	0(,%rdx,8), %rcx
	leaq	var2(%rip), %rdx
	movq	(%rcx,%rdx), %rcx
	movl	-116(%rbp), %esi
	movl	-120(%rbp), %edx
	addl	%esi, %edx
	movslq	%edx, %rdx
	leaq	0(,%rdx,8), %rsi
	leaq	var11(%rip), %rdx
	movq	(%rsi,%rdx), %rdx
	subq	%rdx, %rcx
	cltq
	leaq	0(,%rax,8), %rdx
	leaq	var2(%rip), %rax
	movq	%rcx, (%rdx,%rax)
	jmp	.L24
.L23:
	.loc 1 134 0
	movw	$0, -132(%rbp)
	.loc 1 135 0
	movl	-116(%rbp), %edx
	movl	-120(%rbp), %eax
	leal	(%rdx,%rax), %esi
	movl	-116(%rbp), %ecx
	movl	$-1840700269, %edx
	movl	%ecx, %eax
	imull	%edx
	leal	(%rdx,%rcx), %eax
	sarl	$2, %eax
	movl	%eax, %edx
	movl	%ecx, %eax
	sarl	$31, %eax
	subl	%eax, %edx
	movl	%edx, %eax
	movl	%eax, %edx
	sall	$3, %edx
	subl	%eax, %edx
	movl	%ecx, %eax
	subl	%edx, %eax
	movslq	%esi, %rdx
	leaq	0(,%rdx,8), %rcx
	leaq	var3(%rip), %rdx
	movq	(%rcx,%rdx), %rdx
	cltq
	leaq	0(,%rax,8), %rcx
	leaq	var2(%rip), %rax
	movq	%rdx, (%rcx,%rax)
	.loc 1 136 0
	movl	-116(%rbp), %ecx
	movl	$-1840700269, %edx
	movl	%ecx, %eax
	imull	%edx
	leal	(%rdx,%rcx), %eax
	sarl	$2, %eax
	movl	%eax, %edx
	movl	%ecx, %eax
	sarl	$31, %eax
	subl	%eax, %edx
	movl	%edx, %eax
	cltq
	leaq	0(,%rax,8), %rdx
	leaq	var3(%rip), %rax
	movq	$2, (%rdx,%rax)
.L24:
	.loc 1 138 0
	movl	-116(%rbp), %ecx
	movl	$-1840700269, %edx
	movl	%ecx, %eax
	imull	%edx
	leal	(%rdx,%rcx), %eax
	sarl	$2, %eax
	movl	%eax, %edx
	movl	%ecx, %eax
	sarl	$31, %eax
	movl	%edx, %esi
	subl	%eax, %esi
	movslq	%esi, %rax
	leaq	0(,%rax,8), %rdx
	leaq	var10(%rip), %rax
	movq	(%rdx,%rax), %rdi
	movl	-116(%rbp), %ecx
	movl	$-1840700269, %edx
	movl	%ecx, %eax
	imull	%edx
	leal	(%rdx,%rcx), %eax
	sarl	$2, %eax
	movl	%eax, %edx
	movl	%ecx, %eax
	sarl	$31, %eax
	subl	%eax, %edx
	movl	%edx, %eax
	movl	%eax, %edx
	sall	$3, %edx
	subl	%eax, %edx
	movl	%ecx, %eax
	subl	%edx, %eax
	cltq
	leaq	0(,%rax,8), %rdx
	leaq	var3(%rip), %rax
	movq	(%rdx,%rax), %rax
	leaq	(%rdi,%rax), %rcx
	movslq	%esi, %rax
	leaq	0(,%rax,8), %rdx
	leaq	var10(%rip), %rax
	movq	%rcx, (%rdx,%rax)
	.loc 1 139 0
	movl	-116(%rbp), %edx
	movl	-120(%rbp), %eax
	addl	%edx, %eax
	movslq	%eax, %rdx
	leaq	0(,%rdx,8), %rcx
	leaq	var11(%rip), %rdx
	movq	(%rcx,%rdx), %rdx
	leaq	1(%rdx), %rcx
	cltq
	leaq	0(,%rax,8), %rdx
	leaq	var11(%rip), %rax
	movq	%rcx, (%rdx,%rax)
	.loc 1 141 0
	movl	HR(%rip), %eax
	shrl	$2, %eax
	movl	%eax, HR(%rip)
	.loc 1 143 0
	movzwl	key(%rip), %eax
	cwtl
	movslq	%eax, %rdx
	leaq	coeff(%rip), %rax
	movzbl	(%rdx,%rax), %eax
	xorl	$1, %eax
	testb	%al, %al
	je	.L25
	.loc 1 143 0 is_stmt 0 discriminator 1
	movl	HR(%rip), %edx
	movl	mask_HR(%rip), %eax
	andl	%edx, %eax
	movl	%eax, %eax
	leaq	(%rax,%rax), %rcx
	leaq	PHT(%rip), %rax
	movzwl	-132(%rbp), %edx
	movw	%dx, (%rcx,%rax)
	jmp	.L26
.L25:
	.loc 1 144 0 is_stmt 1
	movzwl	key(%rip), %eax
	cwtl
	movslq	%eax, %rdx
	leaq	coeff(%rip), %rax
	movb	$0, (%rdx,%rax)
.L26:
	.loc 1 145 0
	movl	HR(%rip), %eax
	sall	$2, %eax
	movl	%eax, HR(%rip)
	.loc 1 146 0
	movswl	-132(%rbp), %edx
	movl	HR(%rip), %eax
	addl	%edx, %eax
	movl	%eax, HR(%rip)
	.loc 1 147 0
	movzwl	-132(%rbp), %eax
	movw	%ax, key(%rip)
.L22:
.LBE40:
.LBE37:
	.loc 1 149 0
	movq	8+tr(%rip), %rax
	addq	$1, %rax
	movq	%rax, 8+tr(%rip)
        jmp     .FINISH_LABEL

.TRACE2:
.L27:
.LBB41:
.LBB42:
	.loc 3 52 0
	movl	$-1, %eax
	xbegin	.L28
.L28:
.LBE42:
.LBE41:
	.loc 1 154 0
	movl	%eax, -108(%rbp)
.LBB43:
	.loc 1 155 0
	cmpl	$-1, -108(%rbp)
	jne	.L30
	.loc 1 157 0
	movl	-116(%rbp), %ecx
	movl	$-1840700269, %edx
	movl	%ecx, %eax
	imull	%edx
	leal	(%rdx,%rcx), %eax
	sarl	$2, %eax
	movl	%eax, %edx
	movl	%ecx, %eax
	sarl	$31, %eax
	subl	%eax, %edx
	movl	%edx, %eax
	movl	%eax, %edx
	sall	$3, %edx
	subl	%eax, %edx
	movl	%ecx, %eax
	subl	%edx, %eax
	testl	%eax, %eax
	je	.L31
	.loc 1 157 0 is_stmt 0 discriminator 1
	xabort	$2
.L31:
	.loc 1 158 0 is_stmt 1
	movl	-116(%rbp), %eax
	cltq
	leaq	0(,%rax,8), %rdx
	leaq	var3(%rip), %rax
	movq	(%rdx,%rax), %rdx
	movl	-116(%rbp), %ecx
	movl	-120(%rbp), %eax
	addl	%ecx, %eax
	cltq
	leaq	0(,%rax,8), %rcx
	leaq	var2(%rip), %rax
	movq	(%rcx,%rax), %rax
	leaq	(%rdx,%rax), %rcx
	movl	-116(%rbp), %eax
	cltq
	leaq	0(,%rax,8), %rdx
	leaq	var3(%rip), %rax
	movq	%rcx, (%rdx,%rax)
	.loc 1 159 0
	movl	-116(%rbp), %ecx
	movl	$-1840700269, %edx
	movl	%ecx, %eax
	imull	%edx
	leal	(%rdx,%rcx), %eax
	sarl	$2, %eax
	movl	%eax, %edx
	movl	%ecx, %eax
	sarl	$31, %eax
	subl	%eax, %edx
	movl	%edx, %eax
	movslq	%eax, %rdx
	leaq	0(,%rdx,8), %rcx
	leaq	var2(%rip), %rdx
	movq	(%rcx,%rdx), %rcx
	movl	-116(%rbp), %esi
	movl	-120(%rbp), %edx
	addl	%esi, %edx
	movslq	%edx, %rdx
	leaq	0(,%rdx,8), %rsi
	leaq	var11(%rip), %rdx
	movq	(%rsi,%rdx), %rdx
	subq	%rdx, %rcx
	cltq
	leaq	0(,%rax,8), %rdx
	leaq	var2(%rip), %rax
	movq	%rcx, (%rdx,%rax)
	.loc 1 160 0
	movl	-116(%rbp), %ecx
	movl	$-1840700269, %edx
	movl	%ecx, %eax
	imull	%edx
	leal	(%rdx,%rcx), %eax
	sarl	$2, %eax
	movl	%eax, %edx
	movl	%ecx, %eax
	sarl	$31, %eax
	movl	%edx, %esi
	subl	%eax, %esi
	movslq	%esi, %rax
	leaq	0(,%rax,8), %rdx
	leaq	var10(%rip), %rax
	movq	(%rdx,%rax), %rdi
	movl	-116(%rbp), %ecx
	movl	$-1840700269, %edx
	movl	%ecx, %eax
	imull	%edx
	leal	(%rdx,%rcx), %eax
	sarl	$2, %eax
	movl	%eax, %edx
	movl	%ecx, %eax
	sarl	$31, %eax
	subl	%eax, %edx
	movl	%edx, %eax
	movl	%eax, %edx
	sall	$3, %edx
	subl	%eax, %edx
	movl	%ecx, %eax
	subl	%edx, %eax
	cltq
	leaq	0(,%rax,8), %rdx
	leaq	var3(%rip), %rax
	movq	(%rdx,%rax), %rax
	leaq	(%rdi,%rax), %rcx
	movslq	%esi, %rax
	leaq	0(,%rax,8), %rdx
	leaq	var10(%rip), %rax
	movq	%rcx, (%rdx,%rax)
	.loc 1 161 0
	movl	-116(%rbp), %edx
	movl	-120(%rbp), %eax
	addl	%edx, %eax
	movslq	%eax, %rdx
	leaq	0(,%rdx,8), %rcx
	leaq	var11(%rip), %rdx
	movq	(%rcx,%rdx), %rdx
	leaq	1(%rdx), %rcx
	cltq
	leaq	0(,%rax,8), %rdx
	leaq	var11(%rip), %rax
	movq	%rcx, (%rdx,%rax)
.LBB44:
.LBB45:
	.loc 3 63 0
	xend
.LBE45:
.LBE44:
	jmp	.L32
.L30:
.LBB46:
	.loc 1 166 0
	addq	$1, -48(%rbp)
	.loc 1 167 0
	movw	$0, -130(%rbp)
	.loc 1 169 0
	movl	-116(%rbp), %ecx
	movl	$-1840700269, %edx
	movl	%ecx, %eax
	imull	%edx
	leal	(%rdx,%rcx), %eax
	sarl	$2, %eax
	movl	%eax, %edx
	movl	%ecx, %eax
	sarl	$31, %eax
	subl	%eax, %edx
	movl	%edx, %eax
	movl	%eax, %edx
	sall	$3, %edx
	subl	%eax, %edx
	movl	%ecx, %eax
	subl	%edx, %eax
	testl	%eax, %eax
	jne	.L33
	.loc 1 171 0
	movw	$1, -130(%rbp)
	.loc 1 172 0
	movl	-116(%rbp), %eax
	cltq
	leaq	0(,%rax,8), %rdx
	leaq	var3(%rip), %rax
	movq	(%rdx,%rax), %rdx
	movl	-116(%rbp), %ecx
	movl	-120(%rbp), %eax
	addl	%ecx, %eax
	cltq
	leaq	0(,%rax,8), %rcx
	leaq	var2(%rip), %rax
	movq	(%rcx,%rax), %rax
	leaq	(%rdx,%rax), %rcx
	movl	-116(%rbp), %eax
	cltq
	leaq	0(,%rax,8), %rdx
	leaq	var3(%rip), %rax
	movq	%rcx, (%rdx,%rax)
	.loc 1 173 0
	movl	-116(%rbp), %ecx
	movl	$-1840700269, %edx
	movl	%ecx, %eax
	imull	%edx
	leal	(%rdx,%rcx), %eax
	sarl	$2, %eax
	movl	%eax, %edx
	movl	%ecx, %eax
	sarl	$31, %eax
	subl	%eax, %edx
	movl	%edx, %eax
	movslq	%eax, %rdx
	leaq	0(,%rdx,8), %rcx
	leaq	var2(%rip), %rdx
	movq	(%rcx,%rdx), %rcx
	movl	-116(%rbp), %esi
	movl	-120(%rbp), %edx
	addl	%esi, %edx
	movslq	%edx, %rdx
	leaq	0(,%rdx,8), %rsi
	leaq	var11(%rip), %rdx
	movq	(%rsi,%rdx), %rdx
	subq	%rdx, %rcx
	cltq
	leaq	0(,%rax,8), %rdx
	leaq	var2(%rip), %rax
	movq	%rcx, (%rdx,%rax)
	jmp	.L34
.L33:
	.loc 1 177 0
	movw	$0, -130(%rbp)
	.loc 1 178 0
	movl	-116(%rbp), %edx
	movl	-120(%rbp), %eax
	leal	(%rdx,%rax), %esi
	movl	-116(%rbp), %ecx
	movl	$-1840700269, %edx
	movl	%ecx, %eax
	imull	%edx
	leal	(%rdx,%rcx), %eax
	sarl	$2, %eax
	movl	%eax, %edx
	movl	%ecx, %eax
	sarl	$31, %eax
	subl	%eax, %edx
	movl	%edx, %eax
	movl	%eax, %edx
	sall	$3, %edx
	subl	%eax, %edx
	movl	%ecx, %eax
	subl	%edx, %eax
	movslq	%esi, %rdx
	leaq	0(,%rdx,8), %rcx
	leaq	var3(%rip), %rdx
	movq	(%rcx,%rdx), %rdx
	cltq
	leaq	0(,%rax,8), %rcx
	leaq	var2(%rip), %rax
	movq	%rdx, (%rcx,%rax)
	.loc 1 179 0
	movl	-116(%rbp), %ecx
	movl	$-1840700269, %edx
	movl	%ecx, %eax
	imull	%edx
	leal	(%rdx,%rcx), %eax
	sarl	$2, %eax
	movl	%eax, %edx
	movl	%ecx, %eax
	sarl	$31, %eax
	subl	%eax, %edx
	movl	%edx, %eax
	cltq
	leaq	0(,%rax,8), %rdx
	leaq	var3(%rip), %rax
	movq	$2, (%rdx,%rax)
.L34:
	.loc 1 181 0
	movl	-116(%rbp), %ecx
	movl	$-1840700269, %edx
	movl	%ecx, %eax
	imull	%edx
	leal	(%rdx,%rcx), %eax
	sarl	$2, %eax
	movl	%eax, %edx
	movl	%ecx, %eax
	sarl	$31, %eax
	movl	%edx, %esi
	subl	%eax, %esi
	movslq	%esi, %rax
	leaq	0(,%rax,8), %rdx
	leaq	var10(%rip), %rax
	movq	(%rdx,%rax), %rdi
	movl	-116(%rbp), %ecx
	movl	$-1840700269, %edx
	movl	%ecx, %eax
	imull	%edx
	leal	(%rdx,%rcx), %eax
	sarl	$2, %eax
	movl	%eax, %edx
	movl	%ecx, %eax
	sarl	$31, %eax
	subl	%eax, %edx
	movl	%edx, %eax
	movl	%eax, %edx
	sall	$3, %edx
	subl	%eax, %edx
	movl	%ecx, %eax
	subl	%edx, %eax
	cltq
	leaq	0(,%rax,8), %rdx
	leaq	var3(%rip), %rax
	movq	(%rdx,%rax), %rax
	leaq	(%rdi,%rax), %rcx
	movslq	%esi, %rax
	leaq	0(,%rax,8), %rdx
	leaq	var10(%rip), %rax
	movq	%rcx, (%rdx,%rax)
	.loc 1 182 0
	movl	-116(%rbp), %edx
	movl	-120(%rbp), %eax
	addl	%edx, %eax
	movslq	%eax, %rdx
	leaq	0(,%rdx,8), %rcx
	leaq	var11(%rip), %rdx
	movq	(%rcx,%rdx), %rdx
	leaq	1(%rdx), %rcx
	cltq
	leaq	0(,%rax,8), %rdx
	leaq	var11(%rip), %rax
	movq	%rcx, (%rdx,%rax)
	.loc 1 184 0
	movl	HR(%rip), %eax
	shrl	$2, %eax
	movl	%eax, HR(%rip)
	.loc 1 186 0
	movzwl	key(%rip), %eax
	cwtl
	movslq	%eax, %rdx
	leaq	coeff(%rip), %rax
	movzbl	(%rdx,%rax), %eax
	xorl	$1, %eax
	testb	%al, %al
	je	.L35
	.loc 1 186 0 is_stmt 0 discriminator 1
	movl	HR(%rip), %edx
	movl	mask_HR(%rip), %eax
	andl	%edx, %eax
	movl	%eax, %eax
	leaq	(%rax,%rax), %rcx
	leaq	PHT(%rip), %rax
	movzwl	-130(%rbp), %edx
	movw	%dx, (%rcx,%rax)
	jmp	.L36
.L35:
	.loc 1 187 0 is_stmt 1
	movzwl	key(%rip), %eax
	cwtl
	movslq	%eax, %rdx
	leaq	coeff(%rip), %rax
	movb	$0, (%rdx,%rax)
.L36:
	.loc 1 188 0
	movl	HR(%rip), %eax
	sall	$2, %eax
	movl	%eax, HR(%rip)
	.loc 1 189 0
	movswl	-130(%rbp), %edx
	movl	HR(%rip), %eax
	addl	%edx, %eax
	movl	%eax, HR(%rip)
	.loc 1 190 0
	movzwl	-130(%rbp), %eax
	movw	%ax, key(%rip)
.L32:
.LBE46:
.LBE43:
	.loc 1 192 0
	movq	16+tr(%rip), %rax
	addq	$1, %rax
	movq	%rax, 16+tr(%rip)

.FINISH_LABEL:
.L37:
	.loc 1 196 0
	addq	$1, -40(%rbp)
	.loc 1 197 0
	movzwl	key(%rip), %eax
	cwtl
	movslq	%eax, %rdx
	leaq	coeff(%rip), %rax
	movb	$1, (%rdx,%rax)
	.loc 1 198 0
	movw	$-1, key(%rip)
.LBE34:
	.loc 1 96 0
	addl	$1, -116(%rbp)
	jmp	.L38
.L14:
.LBE33:
.LBE32:
	.loc 1 94 0 discriminator 2
	addl	$1, -120(%rbp)
	jmp	.L39
.L13:
.LBE31:
.LBB47:
.LBB48:
	.loc 2 114 0
	rdtsc
	salq	$32, %rdx
	orq	%rdx, %rax
.LBE48:
.LBE47:
	.loc 1 201 0
	movq	%rax, -24(%rbp)
	.loc 1 205 0
	movq	-104(%rbp), %rax
	movl	$0, %esi
	movq	%rax, %rdi
	call	pthread_kill@PLT
	.loc 1 208 0
	movq	-24(%rbp), %rax
	subq	-32(%rbp), %rax
	movq	%rax, -96(%rbp)
	.loc 1 209 0
	movq	-96(%rbp), %rax
	movq	%rax, %rsi
	leaq	.LC0(%rip), %rdi
	movl	$0, %eax
	call	printf@PLT
	.loc 1 211 0
	movq	-96(%rbp), %rax
	testq	%rax, %rax
	js	.L41
	cvtsi2sdq	%rax, %xmm0
	jmp	.L42
.L41:
	movq	%rax, %rdx
	shrq	%rdx
	andl	$1, %eax
	orq	%rax, %rdx
	cvtsi2sdq	%rdx, %xmm0
	addsd	%xmm0, %xmm0
.L42:
	movsd	.LC1(%rip), %xmm1
	divsd	%xmm1, %xmm0
	movsd	%xmm0, -16(%rbp)
	.loc 1 212 0
	movq	-16(%rbp), %rax
	movq	%rax, -168(%rbp)
	movsd	-168(%rbp), %xmm0
	leaq	.LC2(%rip), %rdi
	movl	$1, %eax
	call	printf@PLT
	.loc 1 215 0
	movq	16+tr(%rip), %rdi
	movq	8+tr(%rip), %rsi
	movq	tr(%rip), %r9
	movq	-64(%rbp), %rax
	leaq	0(,%rax,8), %rdx
	leaq	var11(%rip), %rax
	movq	(%rdx,%rax), %r8
	movq	-72(%rbp), %rax
	leaq	0(,%rax,8), %rdx
	leaq	var10(%rip), %rax
	movq	(%rdx,%rax), %rcx
	movq	-80(%rbp), %rax
	leaq	0(,%rax,8), %rdx
	leaq	var3(%rip), %rax
	movq	(%rdx,%rax), %rdx
	movq	-88(%rbp), %rax
	leaq	0(,%rax,8), %r10
	leaq	var2(%rip), %rax
	movq	(%r10,%rax), %rax
	pushq	-48(%rbp)
	pushq	-56(%rbp)
	pushq	%rdi
	pushq	%rsi
	movq	%rax, %rsi
	leaq	.LC3(%rip), %rdi
	movl	$0, %eax
	call	printf@PLT
	addq	$32, %rsp
.LBB49:
	.loc 1 217 0
	cmpb	$118, -133(%rbp)
	jne	.L43
.LBB50:
	.loc 1 219 0
	leaq	.LC4(%rip), %rdi
	call	puts@PLT
.LBB51:
	.loc 1 220 0
	movl	$0, -112(%rbp)
.L45:
	.loc 1 220 0 is_stmt 0 discriminator 1
	movl	-112(%rbp), %eax
	cmpl	-128(%rbp), %eax
	jge	.L43
	.loc 1 222 0 is_stmt 1
	movl	-112(%rbp), %eax
	cltq
	leaq	0(,%rax,8), %rdx
	leaq	var11(%rip), %rax
	movq	(%rdx,%rax), %rsi
	movl	-112(%rbp), %eax
	cltq
	leaq	0(,%rax,8), %rdx
	leaq	var10(%rip), %rax
	movq	(%rdx,%rax), %rcx
	movl	-112(%rbp), %eax
	cltq
	leaq	0(,%rax,8), %rdx
	leaq	var3(%rip), %rax
	movq	(%rdx,%rax), %rdx
	movl	-112(%rbp), %eax
	cltq
	leaq	0(,%rax,8), %rdi
	leaq	var2(%rip), %rax
	movq	(%rdi,%rax), %rax
	movq	%rsi, %r8
	movq	%rax, %rsi
	leaq	.LC5(%rip), %rdi
	movl	$0, %eax
	call	printf@PLT
	.loc 1 220 0
	addl	$1, -112(%rbp)
	jmp	.L45
.L43:
.LBE51:
.LBE50:
.LBE49:
	.loc 1 226 0
	leaq	.LC6(%rip), %rdi
	call	puts@PLT
	.loc 1 227 0
	movl	$0, %eax
	movq	-8(%rbp), %rdi
	xorq	%fs:40, %rdi
	je	.L47
	call	__stack_chk_fail@PLT
.L47:
	leave
	.cfi_def_cfa 7, 8
	ret
	.cfi_endproc
.LFE3942:
	.size	main, .-main
	.section	.rodata
	.align 8
.LC1:
	.long	1073741824
	.long	1105420059
	.text
.Letext0:
	.file 4 "/usr/include/c++/7/cstdio"
	.file 5 "/usr/include/c++/7/ctime"
	.file 6 "/usr/include/c++/7/cstdlib"
	.file 7 "/usr/include/c++/7/cstdint"
	.file 8 "/usr/include/x86_64-linux-gnu/c++/7/bits/c++config.h"
	.file 9 "/usr/lib/gcc/x86_64-linux-gnu/7/include/stddef.h"
	.file 10 "/usr/include/x86_64-linux-gnu/bits/types.h"
	.file 11 "/usr/include/x86_64-linux-gnu/bits/libio.h"
	.file 12 "/usr/include/x86_64-linux-gnu/bits/types/FILE.h"
	.file 13 "/usr/include/x86_64-linux-gnu/bits/types/__mbstate_t.h"
	.file 14 "/usr/include/x86_64-linux-gnu/bits/_G_config.h"
	.file 15 "/usr/include/stdio.h"
	.file 16 "/usr/include/x86_64-linux-gnu/bits/sys_errlist.h"
	.file 17 "/usr/include/x86_64-linux-gnu/bits/types/clock_t.h"
	.file 18 "/usr/include/x86_64-linux-gnu/bits/types/time_t.h"
	.file 19 "/usr/include/x86_64-linux-gnu/bits/types/struct_tm.h"
	.file 20 "/usr/include/time.h"
	.file 21 "/usr/include/stdlib.h"
	.file 22 "/usr/include/x86_64-linux-gnu/bits/stdint-intn.h"
	.file 23 "/usr/include/x86_64-linux-gnu/bits/pthreadtypes.h"
	.file 24 "/usr/include/pthread.h"
	.file 25 "/usr/include/signal.h"
	.file 26 "/usr/include/x86_64-linux-gnu/bits/stdint-uintn.h"
	.file 27 "/usr/include/stdint.h"
	.file 28 "/usr/include/c++/7/stdlib.h"
	.file 29 "<built-in>"
	.section	.note.GNU-stack,"",@progbits
