	.file	"traced_ifthenelse.cpp"
	.text
.Ltext0:
	.p2align 4,,15
	.globl	_Z9predictorPv
	.type	_Z9predictorPv, @function
_Z9predictorPv:
.LFB5079:
	.file 1 "traced_ifthenelse.cpp"
	.loc 1 34 0
	.cfi_startproc
.LVL0:
	leaq	PHT(%rip), %rcx
.LBB52:
	.loc 1 36 0
	xorl	%eax, %eax
.LVL1:
.L2:
	.loc 1 38 0 discriminator 2
	movslq	%eax, %rdx
	.loc 1 36 0 discriminator 2
	addl	$1, %eax
.LVL2:
	.loc 1 38 0 discriminator 2
	xorl	%esi, %esi
	.loc 1 36 0 discriminator 2
	cmpl	$16, %eax
	.loc 1 38 0 discriminator 2
	movw	%si, (%rcx,%rdx,2)
	.loc 1 36 0 discriminator 2
	jne	.L2
.LVL3:
	movl	HR(%rip), %edx
.LBE52:
	.loc 1 47 0
	movl	mask_HR(%rip), %esi
.LBB53:
	.loc 1 42 0
	movb	$1, coeff(%rip)
.LVL4:
	movb	$1, 1+coeff(%rip)
.LVL5:
	.p2align 4,,10
	.p2align 3
.L3:
.LBE53:
	.loc 1 47 0
	movl	%esi, %eax
	andl	%edx, %eax
	movzwl	(%rcx,%rax,2), %eax
	movw	%ax, key(%rip)
	.loc 1 52 0
	movswl	key(%rip), %eax
	leal	(%rax,%rdx,4), %edx
	.p2align 4,,10
	.p2align 3
.L5:
	.loc 1 54 0
	movzwl	key(%rip), %eax
	testw	%ax, %ax
	jns	.L5
	jmp	.L3
	.cfi_endproc
.LFE5079:
	.size	_Z9predictorPv, .-_Z9predictorPv
	.section	.rodata.str1.1,"aMS",@progbits,1
.LC0:
	.string	"INCORRECT key! "
.LC1:
	.string	"EXEC cycles: %lu \n"
.LC3:
	.string	"EXEC time: %.8f \n"
	.section	.rodata.str1.8,"aMS",@progbits,1
	.align 8
.LC4:
	.string	"\n\n\n****\nCurrent state: %lld %lld %lld %lld\n****\ntr0: %lld; tr1: %lld; tr2: %lld\nMispredicted trace 1: %lld \nMispredicted trace 2: %lld \n"
	.align 8
.LC5:
	.string	"\n#################################################\nVerification: "
	.section	.rodata.str1.1
.LC6:
	.string	"%lld %lld %lld %lld \n"
.LC7:
	.string	"\n\n\n"
	.section	.text.startup,"ax",@progbits
	.p2align 4,,15
	.globl	main
	.type	main, @function
main:
.LFB5082:
	.loc 1 157 0
	.cfi_startproc
.LVL6:
	pushq	%r15
	.cfi_def_cfa_offset 16
	.cfi_offset 15, -16
	pushq	%r14
	.cfi_def_cfa_offset 24
	.cfi_offset 14, -24
	pushq	%r13
	.cfi_def_cfa_offset 32
	.cfi_offset 13, -32
	pushq	%r12
	.cfi_def_cfa_offset 40
	.cfi_offset 12, -40
	pushq	%rbp
	.cfi_def_cfa_offset 48
	.cfi_offset 6, -48
	pushq	%rbx
	.cfi_def_cfa_offset 56
	.cfi_offset 3, -56
	subq	$88, %rsp
	.cfi_def_cfa_offset 144
	.loc 1 157 0
	movq	%fs:40, %rax
	movq	%rax, 72(%rsp)
	xorl	%eax, %eax
.LVL7:
	.loc 1 163 0
	cmpl	$7, %edi
	je	.L50
	.loc 1 160 0
	movl	$700014, 12(%rsp)
	.loc 1 159 0
	movb	$114, 55(%rsp)
	.loc 1 158 0
	movq	$0, 40(%rsp)
	movq	$0, 32(%rsp)
	movq	$0, 24(%rsp)
	movq	$0, 16(%rsp)
.LVL8:
.L9:
	leaq	var2(%rip), %r15
	leaq	var3(%rip), %r12
	leaq	var10(%rip), %r13
	leaq	var11(%rip), %r14
	xorl	%ebx, %ebx
.LBB108:
	.loc 1 178 0
	movl	$274877907, %ebp
.LVL9:
	.p2align 4,,10
	.p2align 3
.L10:
	.loc 1 178 0 is_stmt 0 discriminator 2
	call	rand@PLT
.LVL10:
	movl	%eax, %ecx
	imull	%ebp
	movl	%ecx, %eax
	sarl	$31, %eax
	sarl	$5, %edx
	subl	%eax, %edx
	imull	$500, %edx, %edx
	subl	%edx, %ecx
	movslq	%ecx, %rcx
	movq	%rcx, (%r15,%rbx)
	.loc 1 179 0 is_stmt 1 discriminator 2
	call	rand@PLT
.LVL11:
	movl	%eax, %ecx
	imull	%ebp
	movl	%ecx, %eax
	sarl	$31, %eax
	sarl	$5, %edx
	subl	%eax, %edx
	imull	$500, %edx, %edx
	subl	%edx, %ecx
	movslq	%ecx, %rcx
	movq	%rcx, (%r12,%rbx)
	.loc 1 180 0 discriminator 2
	call	rand@PLT
.LVL12:
	movl	%eax, %ecx
	imull	%ebp
	movl	%ecx, %eax
	sarl	$31, %eax
	sarl	$5, %edx
	subl	%eax, %edx
	imull	$500, %edx, %edx
	subl	%edx, %ecx
	movslq	%ecx, %rcx
	movq	%rcx, 0(%r13,%rbx)
	.loc 1 181 0 discriminator 2
	call	rand@PLT
.LVL13:
	movl	%eax, %ecx
	imull	%ebp
	movl	%ecx, %eax
	sarl	$31, %eax
	sarl	$5, %edx
	subl	%eax, %edx
	imull	$500, %edx, %edx
	subl	%edx, %ecx
	movslq	%ecx, %rcx
	movq	%rcx, (%r14,%rbx)
	addq	$8, %rbx
	.loc 1 176 0 discriminator 2
	cmpq	$16000000, %rbx
	jne	.L10
.LBE108:
	.loc 1 186 0
	leaq	64(%rsp), %rdi
	leaq	_Z9predictorPv(%rip), %rdx
	xorl	%ecx, %ecx
	xorl	%esi, %esi
	call	pthread_create@PLT
.LVL14:
.LBB109:
.LBB110:
	.file 2 "/usr/lib/gcc/x86_64-linux-gnu/7/include/ia32intrin.h"
	.loc 2 114 0
	rdtsc
.LBE110:
.LBE109:
.LBB113:
	.loc 1 192 0
	xorl	%r9d, %r9d
	leaq	coeff(%rip), %rbx
.LBE113:
.LBB154:
.LBB111:
	.loc 2 114 0
	salq	$32, %rdx
.LBE111:
.LBE154:
.LBB155:
.LBB114:
.LBB115:
.LBB116:
.LBB117:
.LBB118:
	.loc 1 96 0
	movl	%r9d, %ebp
.LBE118:
.LBE117:
.LBE116:
.LBE115:
.LBE114:
.LBE155:
.LBB156:
.LBB112:
	.loc 2 114 0
	orq	%rdx, %rax
	movq	%rax, 56(%rsp)
.LVL15:
	movl	12(%rsp), %eax
.LVL16:
	subl	$1, %eax
	movl	%eax, 48(%rsp)
.LVL17:
	.p2align 4,,10
	.p2align 3
.L36:
.LBE112:
.LBE156:
.LBB157:
.LBB152:
	.loc 1 194 0
	movl	12(%rsp), %edx
	testl	%edx, %edx
	jle	.L11
	movl	48(%rsp), %r8d
	xorl	%esi, %esi
	movq	%rsi, %rax
	movl	%ebp, %esi
	movq	%rax, %rbp
.LVL18:
	addq	$1, %r8
.LVL19:
	.p2align 4,,10
	.p2align 3
.L35:
	movl	%ebp, %ecx
.LVL20:
	.p2align 4,,10
	.p2align 3
.L12:
	.loc 1 197 0
	movzwl	key(%rip), %eax
	testw	%ax, %ax
	js	.L12
	.loc 1 198 0
	movzwl	key(%rip), %edi
	testw	%di, %di
	je	.L14
	cmpw	$1, %di
	jne	.L51
.LVL21:
.LBB131:
.LBB132:
.LBB133:
.LBB134:
	.file 3 "/usr/lib/gcc/x86_64-linux-gnu/7/include/rtmintrin.h"
	.loc 3 52 0
	movl	$-1, %eax
	xbegin	.L26
.L26:
	movl	%eax, %r9d
.LVL22:
	movl	$613566757, %edx
	movl	%ecx, %eax
.LVL23:
	mull	%edx
	movl	%ecx, %eax
	subl	%edx, %eax
	shrl	%eax
	addl	%eax, %edx
	movl	%edx, %r10d
	shrl	$2, %r10d
	leal	0(,%r10,8), %eax
	subl	%r10d, %eax
	movl	%ecx, %r10d
	subl	%eax, %r10d
.LBE134:
.LBE133:
.LBB135:
	.loc 1 114 0
	cmpl	$-1, %r9d
	je	.L52
	leal	(%rsi,%rbp), %ecx
.LVL24:
.LBB136:
	.loc 1 125 0
	addq	$1, abort2(%rip)
.LVL25:
	shrl	$2, %edx
	.loc 1 128 0
	testl	%r10d, %r10d
	movslq	%ecx, %rcx
	movq	(%r14,%rcx,8), %r9
.LVL26:
	jne	.L31
.LVL27:
	.loc 1 131 0
	movq	(%r15,%rcx,8), %rax
	.loc 1 132 0
	movl	$1, %r11d
	xorl	%r10d, %r10d
	.loc 1 131 0
	addq	%rax, (%r12,%rbp,8)
	.loc 1 132 0
	subq	%r9, (%r15,%rdx,8)
.LVL28:
.L32:
	.loc 1 141 0
	addq	$1, %r9
	.loc 1 140 0
	movq	(%r12,%r10,8), %rax
	.loc 1 141 0
	movq	%r9, (%r14,%rcx,8)
	.loc 1 145 0
	movswq	key(%rip), %rcx
	.loc 1 140 0
	addq	%rax, 0(%r13,%rdx,8)
	.loc 1 143 0
	movl	HR(%rip), %eax
	.loc 1 145 0
	movzbl	(%rbx,%rcx), %ecx
	.loc 1 143 0
	movl	%eax, %edx
	shrl	$2, %edx
	.loc 1 145 0
	testb	%cl, %cl
	.loc 1 143 0
	movl	%edx, HR(%rip)
	.loc 1 145 0
	jne	.L33
	andl	mask_HR(%rip), %edx
	leaq	PHT(%rip), %rcx
	movw	%di, (%rcx,%rdx,2)
.L34:
	.loc 1 147 0
	andl	$-4, %eax
	.loc 1 149 0
	movw	%di, key(%rip)
	.loc 1 148 0
	addl	%r11d, %eax
	movl	%eax, HR(%rip)
.LVL29:
.L29:
.LBE136:
.LBE135:
	.loc 1 151 0
	addq	$1, 16+tr(%rip)
.LVL30:
.L25:
.LBE132:
.LBE131:
	.loc 1 220 0 discriminator 2
	movswq	key(%rip), %rax
	addq	$1, %rbp
.LVL31:
	.loc 1 219 0 discriminator 2
	addq	$1, iter(%rip)
	.loc 1 194 0 discriminator 2
	cmpq	%rbp, %r8
	.loc 1 220 0 discriminator 2
	movb	$1, (%rbx,%rax)
	.loc 1 221 0 discriminator 2
	movl	$-1, %eax
	movw	%ax, key(%rip)
	.loc 1 194 0 discriminator 2
	jne	.L35
	movl	%esi, %ebp
.L11:
.LBE152:
	.loc 1 192 0
	addl	$1, %ebp
.LVL32:
	cmpl	$500, %ebp
	jne	.L36
.LVL33:
.LBE157:
.LBB158:
.LBB159:
	.loc 2 114 0
	rdtsc
.LBE159:
.LBE158:
	.loc 1 228 0
	movq	64(%rsp), %rdi
	xorl	%esi, %esi
.LBB161:
.LBB160:
	.loc 2 114 0
	salq	$32, %rdx
	movq	%rax, %rbx
	orq	%rdx, %rbx
.LVL34:
.LBE160:
.LBE161:
	.loc 1 228 0
	call	pthread_kill@PLT
.LVL35:
	.loc 1 231 0
	subq	56(%rsp), %rbx
.LVL36:
.LBB162:
.LBB163:
	.file 4 "/usr/include/x86_64-linux-gnu/bits/stdio2.h"
	.loc 4 104 0
	leaq	.LC1(%rip), %rsi
	xorl	%eax, %eax
	movl	$1, %edi
	movq	%rbx, %rdx
	call	__printf_chk@PLT
.LVL37:
.LBE163:
.LBE162:
	.loc 1 234 0
	testq	%rbx, %rbx
	js	.L37
	pxor	%xmm0, %xmm0
	cvtsi2sdq	%rbx, %xmm0
.LVL38:
.L38:
	divsd	.LC2(%rip), %xmm0
.LBB164:
.LBB165:
	.loc 4 104 0
	leaq	.LC3(%rip), %rsi
	movl	$1, %edi
	movl	$1, %eax
	call	__printf_chk@PLT
.LVL39:
.LBE165:
.LBE164:
.LBB166:
.LBB167:
	movq	24(%rsp), %rax
	subq	$8, %rsp
	.cfi_def_cfa_offset 152
	leaq	.LC4(%rip), %rsi
	movl	$1, %edi
	movq	(%r12,%rax,8), %rcx
	movq	24(%rsp), %rax
	pushq	abort2(%rip)
	.cfi_def_cfa_offset 160
	pushq	abort1(%rip)
	.cfi_def_cfa_offset 168
	pushq	16+tr(%rip)
	.cfi_def_cfa_offset 176
	pushq	8+tr(%rip)
	.cfi_def_cfa_offset 184
	movq	(%r15,%rax,8), %rdx
	pushq	tr(%rip)
	.cfi_def_cfa_offset 192
	movq	88(%rsp), %rax
	movq	(%r14,%rax,8), %r9
	movq	80(%rsp), %rax
	movq	0(%r13,%rax,8), %r8
	xorl	%eax, %eax
	call	__printf_chk@PLT
.LVL40:
.LBE167:
.LBE166:
.LBB168:
	.loc 1 240 0
	addq	$48, %rsp
	.cfi_def_cfa_offset 144
	cmpb	$118, 55(%rsp)
	je	.L53
.L39:
.LVL41:
.LBE168:
.LBB174:
.LBB175:
	.loc 4 104 0
	leaq	.LC7(%rip), %rdi
	call	puts@PLT
.LVL42:
.LBE175:
.LBE174:
	.loc 1 250 0
	xorl	%eax, %eax
	movq	72(%rsp), %rdi
	xorq	%fs:40, %rdi
	jne	.L54
	addq	$88, %rsp
	.cfi_remember_state
	.cfi_def_cfa_offset 56
	popq	%rbx
	.cfi_def_cfa_offset 48
	popq	%rbp
	.cfi_def_cfa_offset 40
	popq	%r12
	.cfi_def_cfa_offset 32
	popq	%r13
	.cfi_def_cfa_offset 24
	popq	%r14
	.cfi_def_cfa_offset 16
	popq	%r15
	.cfi_def_cfa_offset 8
	ret
.LVL43:
	.p2align 4,,10
	.p2align 3
.L51:
	.cfi_restore_state
.LBB176:
.LBB153:
.LBB146:
.LBB147:
	.loc 4 104 0
	leaq	.LC0(%rip), %rdi
	movq	%r8, (%rsp)
	movl	%esi, 8(%rsp)
.LVL44:
	call	puts@PLT
.LVL45:
	movq	(%rsp), %r8
	movl	8(%rsp), %esi
	jmp	.L25
.LVL46:
	.p2align 4,,10
	.p2align 3
.L14:
.LBE147:
.LBE146:
.LBB148:
.LBB129:
.LBB125:
.LBB126:
	.loc 3 52 0
	movl	$-1, %eax
	xbegin	.L16
.L16:
	movl	%eax, %r9d
.LVL47:
	movl	$613566757, %edx
	movl	%ecx, %eax
.LVL48:
	mull	%edx
	movl	%ecx, %eax
	movl	%ecx, %r11d
	subl	%edx, %eax
	shrl	%eax
	addl	%eax, %edx
	movl	%edx, %eax
	shrl	$2, %eax
	leal	0(,%rax,8), %r10d
	subl	%eax, %r10d
	subl	%r10d, %r11d
.LBE126:
.LBE125:
.LBB127:
	.loc 1 65 0
	cmpl	$-1, %r9d
	movslq	%r11d, %rax
	je	.L55
	leal	(%rsi,%rbp), %ecx
.LVL49:
.LBB119:
	.loc 1 76 0
	addq	$1, abort1(%rip)
.LVL50:
	shrl	$2, %edx
	.loc 1 79 0
	testl	%eax, %eax
	movslq	%ecx, %rcx
	movq	(%r14,%rcx,8), %r9
.LVL51:
	jne	.L21
.LVL52:
	.loc 1 82 0
	movq	(%r15,%rcx,8), %rax
	.loc 1 83 0
	movl	$1, %r10d
	.loc 1 81 0
	movl	$1, %edi
	.loc 1 83 0
	subq	%r9, (%r15,%rdx,8)
	.loc 1 82 0
	addq	%rax, (%r12,%rbp,8)
	xorl	%eax, %eax
.LVL53:
.L22:
	.loc 1 92 0
	addq	$1, %r9
	.loc 1 91 0
	movq	(%r12,%rax,8), %rax
	.loc 1 92 0
	movq	%r9, (%r14,%rcx,8)
	.loc 1 96 0
	movswq	key(%rip), %rcx
	.loc 1 91 0
	addq	%rax, 0(%r13,%rdx,8)
	.loc 1 94 0
	movl	HR(%rip), %eax
	.loc 1 96 0
	movzbl	(%rbx,%rcx), %ecx
	.loc 1 94 0
	movl	%eax, %edx
	shrl	$2, %edx
	.loc 1 96 0
	testb	%cl, %cl
	.loc 1 94 0
	movl	%edx, HR(%rip)
	.loc 1 96 0
	jne	.L23
	andl	mask_HR(%rip), %edx
	leaq	PHT(%rip), %rcx
	movw	%di, (%rcx,%rdx,2)
.L24:
	.loc 1 98 0
	andl	$-4, %eax
	.loc 1 100 0
	movw	%di, key(%rip)
	.loc 1 99 0
	addl	%r10d, %eax
	movl	%eax, HR(%rip)
.LVL54:
.L19:
.LBE119:
.LBE127:
	.loc 1 102 0
	addq	$1, 8+tr(%rip)
	jmp	.L25
.LVL55:
	.p2align 4,,10
	.p2align 3
.L52:
.LBE129:
.LBE148:
.LBB149:
.LBB144:
.LBB142:
	.loc 1 116 0
	testl	%r10d, %r10d
	je	.L30
.LVL56:
.LBB137:
.LBB138:
	.loc 3 73 0
	xabort	$2
.LVL57:
.L30:
	leal	(%rsi,%rbp), %edi
.LBE138:
.LBE137:
	.loc 1 118 0
	movl	$613566757, %edx
	.loc 1 119 0
	movslq	%r10d, %r10
	.loc 1 117 0
	movslq	%edi, %rdi
	movq	(%r15,%rdi,8), %rax
	addq	%rax, (%r12,%rbp,8)
	.loc 1 118 0
	movl	%ecx, %eax
	mull	%edx
	subl	%edx, %ecx
.LVL58:
	shrl	%ecx
	addl	%ecx, %edx
	movq	(%r14,%rdi,8), %rcx
	shrl	$2, %edx
	movslq	%edx, %rax
	.loc 1 119 0
	movq	(%r12,%r10,8), %rdx
	.loc 1 118 0
	subq	%rcx, (%r15,%rax,8)
	.loc 1 119 0
	addq	%rdx, 0(%r13,%rax,8)
	.loc 1 120 0
	addq	$1, %rcx
	movq	%rcx, (%r14,%rdi,8)
.LBB139:
.LBB140:
	.loc 3 63 0
	xend
	jmp	.L29
.LVL59:
	.p2align 4,,10
	.p2align 3
.L55:
.LBE140:
.LBE139:
.LBE142:
.LBE144:
.LBE149:
.LBB150:
.LBB130:
.LBB128:
	.loc 1 67 0
	testl	%eax, %eax
	jne	.L20
.LVL60:
.LBB120:
.LBB121:
	.loc 3 73 0
	xabort	$1
.LVL61:
.L20:
	leal	(%rsi,%rbp), %r9d
.LVL62:
.LBE121:
.LBE120:
	.loc 1 68 0
	movslq	%eax, %rdi
	.loc 1 69 0
	movl	$613566757, %edx
	.loc 1 68 0
	movslq	%r9d, %r9
	movq	(%r12,%r9,8), %rax
	.loc 1 71 0
	addq	$1, (%r14,%r9,8)
	.loc 1 68 0
	movq	%rax, (%r15,%rdi,8)
	.loc 1 69 0
	movl	%ecx, %eax
	mull	%edx
	subl	%edx, %ecx
.LVL63:
	shrl	%ecx
	addl	%ecx, %edx
	shrl	$2, %edx
	movslq	%edx, %rax
	movq	$2, (%r12,%rax,8)
	.loc 1 70 0
	movq	(%r12,%rdi,8), %rdx
	addq	%rdx, 0(%r13,%rax,8)
.LBB122:
.LBB123:
	.loc 3 63 0
	xend
	jmp	.L19
.LVL64:
	.p2align 4,,10
	.p2align 3
.L23:
.LBE123:
.LBE122:
.LBB124:
	.loc 1 97 0
	movswq	key(%rip), %rdx
	movb	$0, (%rbx,%rdx)
	jmp	.L24
.LVL65:
	.p2align 4,,10
	.p2align 3
.L21:
	.loc 1 88 0
	movq	(%r12,%rcx,8), %r10
	.loc 1 89 0
	movq	$2, (%r12,%rdx,8)
	.loc 1 88 0
	movq	%r10, (%r15,%rax,8)
	.loc 1 89 0
	xorl	%r10d, %r10d
	jmp	.L22
.LVL66:
	.p2align 4,,10
	.p2align 3
.L33:
.LBE124:
.LBE128:
.LBE130:
.LBE150:
.LBB151:
.LBB145:
.LBB143:
.LBB141:
	.loc 1 146 0
	movswq	key(%rip), %rdx
	movb	$0, (%rbx,%rdx)
	jmp	.L34
.LVL67:
	.p2align 4,,10
	.p2align 3
.L31:
	.loc 1 137 0
	movq	(%r12,%rcx,8), %rax
	movslq	%r10d, %r10
	.loc 1 138 0
	movq	$2, (%r12,%rdx,8)
	xorl	%r11d, %r11d
	.loc 1 136 0
	xorl	%edi, %edi
	.loc 1 137 0
	movq	%rax, (%r15,%r10,8)
	jmp	.L32
.LVL68:
.L37:
.LBE141:
.LBE143:
.LBE145:
.LBE151:
.LBE153:
.LBE176:
	.loc 1 234 0
	movq	%rbx, %rax
	pxor	%xmm0, %xmm0
	shrq	%rax
	andl	$1, %ebx
.LVL69:
	orq	%rbx, %rax
	cvtsi2sdq	%rax, %xmm0
	addsd	%xmm0, %xmm0
	jmp	.L38
.LVL70:
.L53:
.LBB177:
.LBB169:
.LBB170:
	.loc 4 104 0
	leaq	.LC5(%rip), %rdi
	call	puts@PLT
.LVL71:
.LBE170:
.LBE169:
.LBB171:
	.loc 1 243 0
	movl	12(%rsp), %eax
	testl	%eax, %eax
	jle	.L39
	subl	$1, %eax
	xorl	%ebx, %ebx
	leaq	8(,%rax,8), %rbp
.LVL72:
.L40:
.LBB172:
.LBB173:
	.loc 4 104 0
	movq	(%r12,%rbx), %rcx
	movq	(%r15,%rbx), %rdx
	leaq	.LC6(%rip), %rsi
	movq	(%r14,%rbx), %r9
	movq	0(%r13,%rbx), %r8
	xorl	%eax, %eax
	movl	$1, %edi
	addq	$8, %rbx
	call	__printf_chk@PLT
.LVL73:
.LBE173:
.LBE172:
	.loc 1 243 0
	cmpq	%rbp, %rbx
	jne	.L40
	jmp	.L39
.LVL74:
.L50:
.LBE171:
.LBE177:
.LBB178:
.LBB179:
	.file 5 "/usr/include/stdlib.h"
	.loc 5 363 0
	movq	8(%rsi), %rdi
.LVL75:
	movq	%rsi, %rbx
.LVL76:
	movl	$10, %edx
	xorl	%esi, %esi
.LVL77:
	call	strtol@PLT
.LVL78:
.LBE179:
.LBE178:
.LBB180:
.LBB181:
	movq	16(%rbx), %rdi
.LBE181:
.LBE180:
	.loc 1 165 0
	cltq
.LBB184:
.LBB182:
	.loc 5 363 0
	movl	$10, %edx
	xorl	%esi, %esi
.LBE182:
.LBE184:
	.loc 1 165 0
	movq	%rax, 16(%rsp)
.LVL79:
.LBB185:
.LBB183:
	.loc 5 363 0
	call	strtol@PLT
.LVL80:
.LBE183:
.LBE185:
.LBB186:
.LBB187:
	movq	24(%rbx), %rdi
.LBE187:
.LBE186:
	.loc 1 166 0
	cltq
.LBB190:
.LBB188:
	.loc 5 363 0
	movl	$10, %edx
	xorl	%esi, %esi
.LBE188:
.LBE190:
	.loc 1 166 0
	movq	%rax, 24(%rsp)
.LVL81:
.LBB191:
.LBB189:
	.loc 5 363 0
	call	strtol@PLT
.LVL82:
.LBE189:
.LBE191:
.LBB192:
.LBB193:
	movq	32(%rbx), %rdi
.LBE193:
.LBE192:
	.loc 1 167 0
	cltq
.LBB196:
.LBB194:
	.loc 5 363 0
	movl	$10, %edx
	xorl	%esi, %esi
.LBE194:
.LBE196:
	.loc 1 167 0
	movq	%rax, 32(%rsp)
.LVL83:
.LBB197:
.LBB195:
	.loc 5 363 0
	call	strtol@PLT
.LVL84:
.LBE195:
.LBE197:
	.loc 1 168 0
	cltq
.LBB198:
.LBB199:
	.loc 5 363 0
	movq	48(%rbx), %rdi
	movl	$10, %edx
.LBE199:
.LBE198:
	.loc 1 168 0
	movq	%rax, 40(%rsp)
.LVL85:
	.loc 1 169 0
	movq	40(%rbx), %rax
.LVL86:
.LBB202:
.LBB200:
	.loc 5 363 0
	xorl	%esi, %esi
.LBE200:
.LBE202:
	.loc 1 169 0
	movzbl	(%rax), %eax
	movb	%al, 55(%rsp)
.LVL87:
.LBB203:
.LBB201:
	.loc 5 363 0
	call	strtol@PLT
.LVL88:
	movl	%eax, 12(%rsp)
.LVL89:
.LBE201:
.LBE203:
	jmp	.L9
.LVL90:
.L54:
	.loc 1 250 0
	call	__stack_chk_fail@PLT
.LVL91:
	.cfi_endproc
.LFE5082:
	.size	main, .-main
	.globl	coeff
	.bss
	.type	coeff, @object
	.size	coeff, 2
coeff:
	.zero	2
	.globl	PHT
	.align 32
	.type	PHT, @object
	.size	PHT, 32
PHT:
	.zero	32
	.globl	mask_HR
	.data
	.align 4
	.type	mask_HR, @object
	.size	mask_HR, 4
mask_HR:
	.long	15
	.globl	HR
	.bss
	.align 4
	.type	HR, @object
	.size	HR, 4
HR:
	.zero	4
	.globl	key
	.align 2
	.type	key, @object
	.size	key, 2
key:
	.zero	2
	.globl	tr
	.align 16
	.type	tr, @object
	.size	tr, 24
tr:
	.zero	24
	.globl	iter
	.align 8
	.type	iter, @object
	.size	iter, 8
iter:
	.zero	8
	.globl	abort2
	.align 8
	.type	abort2, @object
	.size	abort2, 8
abort2:
	.zero	8
	.globl	abort1
	.align 8
	.type	abort1, @object
	.size	abort1, 8
abort1:
	.zero	8
	.globl	var11
	.align 32
	.type	var11, @object
	.size	var11, 16000000
var11:
	.zero	16000000
	.globl	var10
	.align 32
	.type	var10, @object
	.size	var10, 16000000
var10:
	.zero	16000000
	.globl	var3
	.align 32
	.type	var3, @object
	.size	var3, 16000000
var3:
	.zero	16000000
	.globl	var2
	.align 32
	.type	var2, @object
	.size	var2, 16000000
var2:
	.zero	16000000
	.section	.rodata.cst8,"aM",@progbits,8
	.align 8
.LC2:
	.long	1073741824
	.long	1105420059
	.text
.Letext0:
	.file 6 "/usr/include/c++/7/cstdio"
	.file 7 "/usr/include/c++/7/ctime"
	.file 8 "/usr/include/c++/7/cstdlib"
	.file 9 "/usr/include/c++/7/cstdint"
	.file 10 "/usr/include/x86_64-linux-gnu/c++/7/bits/c++config.h"
	.file 11 "/usr/lib/gcc/x86_64-linux-gnu/7/include/stddef.h"
	.file 12 "/usr/include/x86_64-linux-gnu/bits/types.h"
	.file 13 "/usr/include/x86_64-linux-gnu/bits/libio.h"
	.file 14 "/usr/include/x86_64-linux-gnu/bits/types/FILE.h"
	.file 15 "/usr/include/x86_64-linux-gnu/bits/types/__mbstate_t.h"
	.file 16 "/usr/include/x86_64-linux-gnu/bits/_G_config.h"
	.file 17 "/usr/include/stdio.h"
	.file 18 "/usr/include/x86_64-linux-gnu/bits/sys_errlist.h"
	.file 19 "/usr/include/x86_64-linux-gnu/bits/stdio.h"
	.file 20 "/usr/include/x86_64-linux-gnu/bits/types/clock_t.h"
	.file 21 "/usr/include/x86_64-linux-gnu/bits/types/time_t.h"
	.file 22 "/usr/include/x86_64-linux-gnu/bits/types/struct_tm.h"
	.file 23 "/usr/include/time.h"
	.file 24 "/usr/include/x86_64-linux-gnu/bits/stdint-intn.h"
	.file 25 "/usr/include/x86_64-linux-gnu/bits/pthreadtypes.h"
	.file 26 "/usr/include/x86_64-linux-gnu/bits/stdlib-float.h"
	.file 27 "/usr/include/x86_64-linux-gnu/bits/stdlib-bsearch.h"
	.file 28 "/usr/include/x86_64-linux-gnu/bits/stdlib.h"
	.file 29 "/usr/include/pthread.h"
	.file 30 "/usr/include/signal.h"
	.file 31 "/usr/include/x86_64-linux-gnu/bits/stdint-uintn.h"
	.file 32 "/usr/include/stdint.h"
	.file 33 "/usr/include/c++/7/stdlib.h"
	.file 34 "/usr/include/x86_64-linux-gnu/bits/sigthread.h"
	.file 35 "<built-in>"
	.section	.note.GNU-stack,"",@progbits
